; ModuleID = '9/744.c'
source_filename = "9/744.c"
target datalayout = "e-m:e-p270:32:32-p271:32:32-p272:64:64-i64:64-f80:128-n8:16:32:64-S128"
target triple = "x86_64-pc-linux-gnu"

%struct.patient = type { [10 x i8], i16 }

@.str = private unnamed_addr constant [3 x i8] c"%d\00", align 1
@.str.1 = private unnamed_addr constant [6 x i8] c"%s %d\00", align 1
@.str.2 = private unnamed_addr constant [4 x i8] c"%s\0A\00", align 1

; Function Attrs: noinline nounwind uwtable
define dso_local void @main() #0 {
  %1 = alloca i32, align 4
  %2 = alloca i32, align 4
  %3 = alloca i32, align 4
  %4 = alloca i32, align 4
  %5 = alloca i32, align 4
  %6 = alloca [100 x %struct.patient], align 16
  %7 = alloca %struct.patient, align 2
  %8 = alloca [100 x %struct.patient], align 16
  %9 = call i32 (i8*, ...) @__isoc99_scanf(i8* getelementptr inbounds ([3 x i8], [3 x i8]* @.str, i64 0, i64 0), i32* %5)
  store i32 0, i32* %1, align 4
  br label %10

10:                                               ; preds = %24, %0
  %11 = load i32, i32* %1, align 4
  %12 = load i32, i32* %5, align 4
  %13 = icmp slt i32 %11, %12
  br i1 %13, label %14, label %27

14:                                               ; preds = %10
  %15 = load i32, i32* %1, align 4
  %16 = sext i32 %15 to i64
  %17 = getelementptr inbounds [100 x %struct.patient], [100 x %struct.patient]* %6, i64 0, i64 %16
  %18 = getelementptr inbounds %struct.patient, %struct.patient* %17, i32 0, i32 0
  %19 = load i32, i32* %1, align 4
  %20 = sext i32 %19 to i64
  %21 = getelementptr inbounds [100 x %struct.patient], [100 x %struct.patient]* %6, i64 0, i64 %20
  %22 = getelementptr inbounds %struct.patient, %struct.patient* %21, i32 0, i32 1
  %23 = call i32 (i8*, ...) @__isoc99_scanf(i8* getelementptr inbounds ([6 x i8], [6 x i8]* @.str.1, i64 0, i64 0), [10 x i8]* %18, i16* %22)
  br label %24

24:                                               ; preds = %14
  %25 = load i32, i32* %1, align 4
  %26 = add nsw i32 %25, 1
  store i32 %26, i32* %1, align 4
  br label %10

27:                                               ; preds = %10
  store i32 0, i32* %1, align 4
  store i32 0, i32* %2, align 4
  br label %28

28:                                               ; preds = %52, %27
  %29 = load i32, i32* %1, align 4
  %30 = load i32, i32* %5, align 4
  %31 = icmp slt i32 %29, %30
  br i1 %31, label %32, label %55

32:                                               ; preds = %28
  %33 = load i32, i32* %1, align 4
  %34 = sext i32 %33 to i64
  %35 = getelementptr inbounds [100 x %struct.patient], [100 x %struct.patient]* %6, i64 0, i64 %34
  %36 = getelementptr inbounds %struct.patient, %struct.patient* %35, i32 0, i32 1
  %37 = load i16, i16* %36, align 2
  %38 = sext i16 %37 to i32
  %39 = icmp sge i32 %38, 60
  br i1 %39, label %40, label %51

40:                                               ; preds = %32
  %41 = load i32, i32* %2, align 4
  %42 = sext i32 %41 to i64
  %43 = getelementptr inbounds [100 x %struct.patient], [100 x %struct.patient]* %8, i64 0, i64 %42
  %44 = load i32, i32* %1, align 4
  %45 = sext i32 %44 to i64
  %46 = getelementptr inbounds [100 x %struct.patient], [100 x %struct.patient]* %6, i64 0, i64 %45
  %47 = bitcast %struct.patient* %43 to i8*
  %48 = bitcast %struct.patient* %46 to i8*
  call void @llvm.memcpy.p0i8.p0i8.i64(i8* align 4 %47, i8* align 4 %48, i64 12, i1 false)
  %49 = load i32, i32* %2, align 4
  %50 = add nsw i32 %49, 1
  store i32 %50, i32* %2, align 4
  br label %51

51:                                               ; preds = %40, %32
  br label %52

52:                                               ; preds = %51
  %53 = load i32, i32* %1, align 4
  %54 = add nsw i32 %53, 1
  store i32 %54, i32* %1, align 4
  br label %28

55:                                               ; preds = %28
  store i32 0, i32* %3, align 4
  br label %56

56:                                               ; preds = %109, %55
  %57 = load i32, i32* %3, align 4
  %58 = load i32, i32* %2, align 4
  %59 = sub nsw i32 %58, 1
  %60 = icmp slt i32 %57, %59
  br i1 %60, label %61, label %112

61:                                               ; preds = %56
  %62 = load i32, i32* %2, align 4
  %63 = sub nsw i32 %62, 1
  store i32 %63, i32* %4, align 4
  br label %64

64:                                               ; preds = %105, %61
  %65 = load i32, i32* %4, align 4
  %66 = load i32, i32* %3, align 4
  %67 = icmp sgt i32 %65, %66
  br i1 %67, label %68, label %108

68:                                               ; preds = %64
  %69 = load i32, i32* %4, align 4
  %70 = sext i32 %69 to i64
  %71 = getelementptr inbounds [100 x %struct.patient], [100 x %struct.patient]* %8, i64 0, i64 %70
  %72 = getelementptr inbounds %struct.patient, %struct.patient* %71, i32 0, i32 1
  %73 = load i16, i16* %72, align 2
  %74 = sext i16 %73 to i32
  %75 = load i32, i32* %4, align 4
  %76 = sub nsw i32 %75, 1
  %77 = sext i32 %76 to i64
  %78 = getelementptr inbounds [100 x %struct.patient], [100 x %struct.patient]* %8, i64 0, i64 %77
  %79 = getelementptr inbounds %struct.patient, %struct.patient* %78, i32 0, i32 1
  %80 = load i16, i16* %79, align 2
  %81 = sext i16 %80 to i32
  %82 = icmp sgt i32 %74, %81
  br i1 %82, label %83, label %104

83:                                               ; preds = %68
  %84 = load i32, i32* %4, align 4
  %85 = sext i32 %84 to i64
  %86 = getelementptr inbounds [100 x %struct.patient], [100 x %struct.patient]* %8, i64 0, i64 %85
  %87 = bitcast %struct.patient* %7 to i8*
  %88 = bitcast %struct.patient* %86 to i8*
  call void @llvm.memcpy.p0i8.p0i8.i64(i8* align 2 %87, i8* align 4 %88, i64 12, i1 false)
  %89 = load i32, i32* %4, align 4
  %90 = sext i32 %89 to i64
  %91 = getelementptr inbounds [100 x %struct.patient], [100 x %struct.patient]* %8, i64 0, i64 %90
  %92 = load i32, i32* %4, align 4
  %93 = sub nsw i32 %92, 1
  %94 = sext i32 %93 to i64
  %95 = getelementptr inbounds [100 x %struct.patient], [100 x %struct.patient]* %8, i64 0, i64 %94
  %96 = bitcast %struct.patient* %91 to i8*
  %97 = bitcast %struct.patient* %95 to i8*
  call void @llvm.memcpy.p0i8.p0i8.i64(i8* align 4 %96, i8* align 4 %97, i64 12, i1 false)
  %98 = load i32, i32* %4, align 4
  %99 = sub nsw i32 %98, 1
  %100 = sext i32 %99 to i64
  %101 = getelementptr inbounds [100 x %struct.patient], [100 x %struct.patient]* %8, i64 0, i64 %100
  %102 = bitcast %struct.patient* %101 to i8*
  %103 = bitcast %struct.patient* %7 to i8*
  call void @llvm.memcpy.p0i8.p0i8.i64(i8* align 4 %102, i8* align 2 %103, i64 12, i1 false)
  br label %104

104:                                              ; preds = %83, %68
  br label %105

105:                                              ; preds = %104
  %106 = load i32, i32* %4, align 4
  %107 = add nsw i32 %106, -1
  store i32 %107, i32* %4, align 4
  br label %64

108:                                              ; preds = %64
  br label %109

109:                                              ; preds = %108
  %110 = load i32, i32* %3, align 4
  %111 = add nsw i32 %110, 1
  store i32 %111, i32* %3, align 4
  br label %56

112:                                              ; preds = %56
  store i32 0, i32* %3, align 4
  br label %113

113:                                              ; preds = %124, %112
  %114 = load i32, i32* %3, align 4
  %115 = load i32, i32* %2, align 4
  %116 = icmp slt i32 %114, %115
  br i1 %116, label %117, label %127

117:                                              ; preds = %113
  %118 = load i32, i32* %3, align 4
  %119 = sext i32 %118 to i64
  %120 = getelementptr inbounds [100 x %struct.patient], [100 x %struct.patient]* %8, i64 0, i64 %119
  %121 = getelementptr inbounds %struct.patient, %struct.patient* %120, i32 0, i32 0
  %122 = getelementptr inbounds [10 x i8], [10 x i8]* %121, i64 0, i64 0
  %123 = call i32 (i8*, ...) @printf(i8* getelementptr inbounds ([4 x i8], [4 x i8]* @.str.2, i64 0, i64 0), i8* %122)
  br label %124

124:                                              ; preds = %117
  %125 = load i32, i32* %3, align 4
  %126 = add nsw i32 %125, 1
  store i32 %126, i32* %3, align 4
  br label %113

127:                                              ; preds = %113
  store i32 0, i32* %1, align 4
  br label %128

128:                                              ; preds = %148, %127
  %129 = load i32, i32* %1, align 4
  %130 = load i32, i32* %5, align 4
  %131 = icmp slt i32 %129, %130
  br i1 %131, label %132, label %151

132:                                              ; preds = %128
  %133 = load i32, i32* %1, align 4
  %134 = sext i32 %133 to i64
  %135 = getelementptr inbounds [100 x %struct.patient], [100 x %struct.patient]* %6, i64 0, i64 %134
  %136 = getelementptr inbounds %struct.patient, %struct.patient* %135, i32 0, i32 1
  %137 = load i16, i16* %136, align 2
  %138 = sext i16 %137 to i32
  %139 = icmp slt i32 %138, 60
  br i1 %139, label %140, label %147

140:                                              ; preds = %132
  %141 = load i32, i32* %1, align 4
  %142 = sext i32 %141 to i64
  %143 = getelementptr inbounds [100 x %struct.patient], [100 x %struct.patient]* %6, i64 0, i64 %142
  %144 = getelementptr inbounds %struct.patient, %struct.patient* %143, i32 0, i32 0
  %145 = getelementptr inbounds [10 x i8], [10 x i8]* %144, i64 0, i64 0
  %146 = call i32 (i8*, ...) @printf(i8* getelementptr inbounds ([4 x i8], [4 x i8]* @.str.2, i64 0, i64 0), i8* %145)
  br label %147

147:                                              ; preds = %140, %132
  br label %148

148:                                              ; preds = %147
  %149 = load i32, i32* %1, align 4
  %150 = add nsw i32 %149, 1
  store i32 %150, i32* %1, align 4
  br label %128

151:                                              ; preds = %128
  ret void
}

declare dso_local i32 @__isoc99_scanf(i8*, ...) #1

; Function Attrs: argmemonly nounwind willreturn
declare void @llvm.memcpy.p0i8.p0i8.i64(i8* noalias nocapture writeonly, i8* noalias nocapture readonly, i64, i1 immarg) #2

declare dso_local i32 @printf(i8*, ...) #1


!llvm.module.flags = !{!0}
!llvm.ident = !{!1}

!0 = !{i32 1, !"wchar_size", i32 4}
!1 = !{!"clang version 10.0.0-4ubuntu1 "}
